target datalayout = "e-m:e-p270:32:32-p271:32:32-p272:64:64-i64:64-i128:128-f80:128-n8:16:32:64-S128"
target triple = "x86_64-pc-linux-gnu"

; Function Attrs: nounwind uwtable
define void @stbtt_Rasterize(ptr noundef %0, float noundef %1, ptr noundef %2, i32 noundef %3, float noundef %4, float noundef %5, float noundef %6, float noundef %7, i32 noundef %8, i32 noundef %9, i32 noundef %10, ptr noundef %11) #0 {
  %13 = alloca ptr, align 8
  %14 = alloca float, align 4
  %15 = alloca ptr, align 8
  %16 = alloca i32, align 4
  %17 = alloca float, align 4
  %18 = alloca float, align 4
  %19 = alloca float, align 4
  %20 = alloca float, align 4
  %21 = alloca i32, align 4
  %22 = alloca i32, align 4
  %23 = alloca i32, align 4
  %24 = alloca ptr, align 8
  %25 = alloca float, align 4
  %26 = alloca i32, align 4
  %27 = alloca ptr, align 8
  %28 = alloca ptr, align 8
  store ptr %0, ptr %13, align 8, !tbaa !3
  store float %1, ptr %14, align 4, !tbaa !67
  store ptr %2, ptr %15, align 8, !tbaa !3
  store i32 %3, ptr %16, align 4, !tbaa !14
  store float %4, ptr %17, align 4, !tbaa !67
  store float %5, ptr %18, align 4, !tbaa !67
  store float %6, ptr %19, align 4, !tbaa !67
  store float %7, ptr %20, align 4, !tbaa !67
  store i32 %8, ptr %21, align 4, !tbaa !14
  store i32 %9, ptr %22, align 4, !tbaa !14
  store i32 %10, ptr %23, align 4, !tbaa !14
  store ptr %11, ptr %24, align 8, !tbaa !3
  call void @llvm.lifetime.start.p0(i64 4, ptr %25) #8
  %29 = load float, ptr %17, align 4, !tbaa !67
  %30 = load float, ptr %18, align 4, !tbaa !67
  %31 = fcmp ogt float %29, %30
  br i1 %31, label %32, label %34

32:                                               ; preds = %12
  %33 = load float, ptr %18, align 4, !tbaa !67
  br label %36

34:                                               ; preds = %12
  %35 = load float, ptr %17, align 4, !tbaa !67
  br label %36

36:                                               ; preds = %34, %32
  %37 = phi float [ %33, %32 ], [ %35, %34 ]
  store float %37, ptr %25, align 4, !tbaa !67
  call void @llvm.lifetime.start.p0(i64 4, ptr %26) #8
  store i32 0, ptr %26, align 4, !tbaa !14
  call void @llvm.lifetime.start.p0(i64 8, ptr %27) #8
  store ptr null, ptr %27, align 8, !tbaa !22
  call void @llvm.lifetime.start.p0(i64 8, ptr %28) #8
  %38 = load ptr, ptr %15, align 8, !tbaa !3
  %39 = load i32, ptr %16, align 4, !tbaa !14
  %40 = load float, ptr %14, align 4, !tbaa !67
  %41 = load float, ptr %25, align 4, !tbaa !67
  %42 = fdiv float %40, %41
  %43 = load ptr, ptr %24, align 8, !tbaa !3
  %44 = call ptr @stbtt_FlattenCurves(ptr noundef %38, i32 noundef %39, float noundef %42, ptr noundef %27, ptr noundef %26, ptr noundef %43)
  store ptr %44, ptr %28, align 8, !tbaa !3
  %45 = load ptr, ptr %28, align 8, !tbaa !3
  %46 = icmp ne ptr %45, null
  br i1 %46, label %47, label %62

47:                                               ; preds = %36
  %48 = load ptr, ptr %13, align 8, !tbaa !3
  %49 = load ptr, ptr %28, align 8, !tbaa !3
  %50 = load ptr, ptr %27, align 8, !tbaa !22
  %51 = load i32, ptr %26, align 4, !tbaa !14
  %52 = load float, ptr %17, align 4, !tbaa !67
  %53 = load float, ptr %18, align 4, !tbaa !67
  %54 = load float, ptr %19, align 4, !tbaa !67
  %55 = load float, ptr %20, align 4, !tbaa !67
  %56 = load i32, ptr %21, align 4, !tbaa !14
  %57 = load i32, ptr %22, align 4, !tbaa !14
  %58 = load i32, ptr %23, align 4, !tbaa !14
  %59 = load ptr, ptr %24, align 8, !tbaa !3
  call void @stbtt__rasterize(ptr noundef %48, ptr noundef %49, ptr noundef %50, i32 noundef %51, float noundef %52, float noundef %53, float noundef %54, float noundef %55, i32 noundef %56, i32 noundef %57, i32 noundef %58, ptr noundef %59)
  %60 = load ptr, ptr %27, align 8, !tbaa !22
  call void @free(ptr noundef %60) #8
  %61 = load ptr, ptr %28, align 8, !tbaa !3
  call void @free(ptr noundef %61) #8
  br label %62

62:                                               ; preds = %47, %36
  call void @llvm.lifetime.end.p0(i64 8, ptr %28) #8
  call void @llvm.lifetime.end.p0(i64 8, ptr %27) #8
  call void @llvm.lifetime.end.p0(i64 4, ptr %26) #8
  call void @llvm.lifetime.end.p0(i64 4, ptr %25) #8
  ret void
}