; Function Attrs: nounwind uwtable
define void @stbtt_Rasterize(ptr noundef readonly captures(none) %0, float noundef %1, ptr noundef readonly captures(none) %2, i32 noundef %3, float noundef %4, float noundef %5, float noundef %6, float noundef %7, i32 noundef %8, i32 noundef %9, i32 noundef %10, ptr noundef readnone captures(none) %11) local_unnamed_addr #11 {
  %13 = alloca i32, align 4
  %14 = alloca ptr, align 8
  %15 = fcmp ogt float %4, %5
  %16 = select i1 %15, float %5, float %4
  call void @llvm.lifetime.start.p0(i64 4, ptr nonnull %13) #32
  store i32 0, ptr %13, align 4, !tbaa !17
  call void @llvm.lifetime.start.p0(i64 8, ptr nonnull %14) #32
  store ptr null, ptr %14, align 8, !tbaa !140
  %17 = fdiv float %1, %16
  %18 = call ptr @stbtt_FlattenCurves(ptr noundef %2, i32 noundef %3, float noundef %17, ptr noundef nonnull %14, ptr noundef nonnull %13, ptr poison)
  %.not = icmp eq ptr %18, null
  br i1 %.not, label %22, label %19

19:                                               ; preds = %12
  %20 = load ptr, ptr %14, align 8, !tbaa !140
  %21 = load i32, ptr %13, align 4, !tbaa !17
  tail call void @stbtt__rasterize(ptr noundef %0, ptr noundef nonnull %18, ptr noundef %20, i32 noundef %21, float noundef %4, float noundef %5, float noundef %6, float noundef %7, i32 noundef %8, i32 noundef %9, i32 noundef %10, ptr poison)
  tail call void @free(ptr noundef %20) #32
  tail call void @free(ptr noundef nonnull %18) #32
  br label %22

22:                                               ; preds = %19, %12
  call void @llvm.lifetime.end.p0(i64 8, ptr nonnull %14) #32
  call void @llvm.lifetime.end.p0(i64 4, ptr nonnull %13) #32
  ret void
}